; Function Attrs: null_pointer_is_valid sspstrong uwtable
define internal void @nas_5gs_mm_relay_key_accept(ptr noundef %0, ptr noundef %1, ptr noundef %2, i32 noundef %3, i32 noundef %4) #0 {
  %6 = icmp sgt i32 %4, 0
  br i1 %6, label %7, label %13

7:                                                ; preds = %5
  %8 = tail call zeroext i16 @elem_v(ptr noundef %0, ptr noundef %1, ptr noundef %2, i32 noundef 17, i32 noundef 92, i32 noundef %3, ptr noundef null)
  %.not = icmp eq i16 %8, 0
  br i1 %.not, label %13, label %9

9:                                                ; preds = %7
  %10 = zext i16 %8 to i32
  %11 = add i32 %3, %10
  %12 = sub nsw i32 %4, %10
  br label %16

13:                                               ; preds = %7, %5
  %14 = tail call ptr @get_gsm_a_msg_string(i32 noundef 17, i32 noundef 92)
  %15 = tail call ptr (ptr, ptr, ptr, ptr, i32, i32, ptr, ...) @proto_tree_add_expert_format(ptr noundef %1, ptr noundef %2, ptr noundef nonnull @ei_nas_5gs_missing_mandatory_element, ptr noundef %0, i32 noundef %3, i32 noundef 0, ptr noundef nonnull @.str.1664, ptr noundef %14, ptr noundef nonnull @.str.1644)
  br label %16

16:                                               ; preds = %13, %9
  %.046 = phi i32 [ %11, %9 ], [ %3, %13 ]
  %.0 = phi i32 [ %12, %9 ], [ %4, %13 ]
  %17 = icmp sgt i32 %.0, 0
  br i1 %17, label %18, label %24

18:                                               ; preds = %16
  %19 = tail call zeroext i16 @elem_lv_e(ptr noundef %0, ptr noundef %1, ptr noundef %2, i32 noundef 17, i32 noundef 93, i32 noundef %.046, i32 noundef %.0, ptr noundef null)
  %.not53 = icmp eq i16 %19, 0
  br i1 %.not53, label %24, label %20

20:                                               ; preds = %18
  %21 = zext i16 %19 to i32
  %22 = add i32 %.046, %21
  %23 = sub nsw i32 %.0, %21
  br label %27

24:                                               ; preds = %18, %16
  %25 = tail call ptr @get_gsm_a_msg_string(i32 noundef 17, i32 noundef 93)
  %26 = tail call ptr (ptr, ptr, ptr, ptr, i32, i32, ptr, ...) @proto_tree_add_expert_format(ptr noundef %1, ptr noundef %2, ptr noundef nonnull @ei_nas_5gs_missing_mandatory_element, ptr noundef %0, i32 noundef %.046, i32 noundef 0, ptr noundef nonnull @.str.1664, ptr noundef %25, ptr noundef nonnull @.str.1644)
  br label %27

27:                                               ; preds = %24, %20
  %.147 = phi i32 [ %22, %20 ], [ %.046, %24 ]
  %.1 = phi i32 [ %23, %20 ], [ %.0, %24 ]
  %28 = icmp slt i32 %.1, 1
  br i1 %28, label %36, label %29

29:                                               ; preds = %27
  %30 = tail call zeroext i16 @elem_tlv_e(ptr noundef %0, ptr noundef %1, ptr noundef %2, i8 noundef zeroext 120, i32 noundef 16, i32 noundef 3, i32 noundef %.147, i32 noundef %.1, ptr noundef null)
  %31 = zext i16 %30 to i32
  %.not55 = icmp eq i32 %.1, %31
  br i1 %.not55, label %36, label %32

32:                                               ; preds = %29
  %33 = sub nsw i32 %.1, %31
  %34 = add i32 %.147, %31
  %35 = tail call ptr @proto_tree_add_expert(ptr noundef %1, ptr noundef %2, ptr noundef nonnull @ei_nas_5gs_extraneous_data, ptr noundef %0, i32 noundef %34, i32 noundef %33)
  br label %36

36:                                               ; preds = %29, %32, %27
  ret void
}